; Function Attrs: mustprogress nounwind uwtable
define internal { ptr, ptr } @"_ZN5boost7context6detail11fiber_ontopINS0_5fiberEZNS_6fibers7context6resumeEvE3$_0EENS1_10transfer_tES7_"(ptr %0, ptr nocapture readonly %1) #3 personality ptr @__gxx_personality_v0 {
  %3 = load i64, ptr %1, align 8, !tbaa !13
  %4 = inttoptr i64 %3 to ptr
  %5 = getelementptr inbounds nuw i8, ptr %4, i64 208
  %6 = load ptr, ptr %5, align 8, !tbaa !13, !noalias !176
  store ptr %0, ptr %5, align 8, !tbaa !13, !noalias !176
  %.not.i.i.i = icmp eq ptr %6, null
  br i1 %.not.i.i.i, label %_ZN5boost7context5fiberD2Ev.exit4, label %7, !prof !55

7:                                                ; preds = %2
  %8 = invoke { ptr, ptr } @ontop_fcontext(ptr noundef nonnull %6, ptr noundef null, ptr noundef nonnull @_ZN5boost7context6detail12fiber_unwindENS1_10transfer_tE)
          to label %_ZN5boost7context5fiberD2Ev.exit4 unwind label %9, !noalias !176

9:                                                ; preds = %7
  %10 = landingpad { ptr, i32 }
          catch ptr null
  %11 = extractvalue { ptr, i32 } %10, 0
  tail call void @__clang_call_terminate(ptr %11) #32
  unreachable

_ZN5boost7context5fiberD2Ev.exit4:                ; preds = %7, %2
  ret { ptr, ptr } zeroinitializer
}